; Function Attrs: mustprogress uwtable
define void @_ZNK5Ipopt10GenTMatrix18ComputeColAMaxImplERNS_6VectorEb(ptr nocapture noundef nonnull readonly align 8 dereferenceable(89) %0, ptr noundef nonnull align 8 dereferenceable(205) %1, i1 zeroext %2) unnamed_addr #0 align 2 {
  %4 = getelementptr inbounds i8, ptr %0, i64 56
  %5 = load ptr, ptr %4, align 8
  %6 = getelementptr inbounds i8, ptr %5, i64 16
  %7 = load i32, ptr %6, align 8
  %8 = icmp eq i32 %7, 0
  br i1 %8, label %.loopexit, label %9

9:                                                ; preds = %3
  %10 = getelementptr inbounds i8, ptr %0, i64 72
  %11 = load ptr, ptr %10, align 8
  %12 = getelementptr inbounds i8, ptr %11, i64 24
  %13 = load ptr, ptr %12, align 8
  %14 = getelementptr inbounds i8, ptr %0, i64 80
  %15 = load ptr, ptr %14, align 8
  %16 = getelementptr inbounds i8, ptr %1, i64 232
  %17 = load i8, ptr %16, align 8
  %18 = and i8 %17, 1
  %.not.i = icmp eq i8 %18, 0
  br i1 %.not.i, label %24, label %19

19:                                               ; preds = %9
  %20 = getelementptr inbounds i8, ptr %1, i64 233
  %21 = load i8, ptr %20, align 1
  %22 = and i8 %21, 1
  %.not1.i = icmp eq i8 %22, 0
  br i1 %.not1.i, label %24, label %23

23:                                               ; preds = %19
  tail call void @_ZN5Ipopt11DenseVector22set_values_from_scalarEv(ptr noundef nonnull align 8 dereferenceable(248) %1)
  br label %24

24:                                               ; preds = %23, %19, %9
  tail call void @_ZN5Ipopt12TaggedObject13ObjectChangedEv(ptr noundef nonnull align 8 dereferenceable(56) %1)
  store i8 1, ptr %16, align 8
  %25 = getelementptr inbounds i8, ptr %1, i64 233
  store i8 0, ptr %25, align 1
  %26 = getelementptr inbounds i8, ptr %1, i64 216
  %27 = load ptr, ptr %26, align 8
  %28 = icmp eq ptr %27, null
  br i1 %28, label %29, label %_ZN5Ipopt11DenseVector6ValuesEv.exit

29:                                               ; preds = %24
  %30 = getelementptr inbounds i8, ptr %1, i64 208
  %31 = load ptr, ptr %30, align 8
  %32 = getelementptr inbounds i8, ptr %31, i64 12
  %33 = load i32, ptr %32, align 4
  %34 = icmp sgt i32 %33, 0
  br i1 %34, label %35, label %_ZNK5Ipopt16DenseVectorSpace23AllocateInternalStorageEv.exit.i.i

35:                                               ; preds = %29
  %36 = zext nneg i32 %33 to i64
  %37 = shl nuw nsw i64 %36, 3
  %38 = tail call noalias noundef nonnull ptr @_Znam(i64 noundef %37) #12
  br label %_ZNK5Ipopt16DenseVectorSpace23AllocateInternalStorageEv.exit.i.i

_ZNK5Ipopt16DenseVectorSpace23AllocateInternalStorageEv.exit.i.i: ; preds = %35, %29
  %.0.i.i.i = phi ptr [ %38, %35 ], [ null, %29 ]
  store ptr %.0.i.i.i, ptr %26, align 8
  br label %_ZN5Ipopt11DenseVector6ValuesEv.exit

_ZN5Ipopt11DenseVector6ValuesEv.exit:             ; preds = %24, %_ZNK5Ipopt16DenseVectorSpace23AllocateInternalStorageEv.exit.i.i
  %39 = phi ptr [ %27, %24 ], [ %.0.i.i.i, %_ZNK5Ipopt16DenseVectorSpace23AllocateInternalStorageEv.exit.i.i ]
  %40 = getelementptr inbounds i8, ptr %39, i64 -8
  %41 = load ptr, ptr %10, align 8
  %42 = getelementptr inbounds i8, ptr %41, i64 20
  %43 = load i32, ptr %42, align 4
  %44 = icmp sgt i32 %43, 0
  br i1 %44, label %.lr.ph, label %.loopexit

.lr.ph:                                           ; preds = %_ZN5Ipopt11DenseVector6ValuesEv.exit, %.lr.ph
  %indvars.iv = phi i64 [ %indvars.iv.next, %.lr.ph ], [ 0, %_ZN5Ipopt11DenseVector6ValuesEv.exit ]
  %45 = getelementptr inbounds i32, ptr %13, i64 %indvars.iv
  %46 = load i32, ptr %45, align 4
  %47 = sext i32 %46 to i64
  %48 = getelementptr inbounds double, ptr %40, i64 %47
  %49 = load double, ptr %48, align 8
  %50 = getelementptr inbounds double, ptr %15, i64 %indvars.iv
  %51 = load double, ptr %50, align 8
  %52 = tail call noundef double @llvm.fabs.f64(double %51)
  %53 = fcmp olt double %49, %52
  %.sroa.speculated.i = select i1 %53, double %52, double %49
  store double %.sroa.speculated.i, ptr %48, align 8
  %indvars.iv.next = add nuw nsw i64 %indvars.iv, 1
  %54 = load ptr, ptr %10, align 8
  %55 = getelementptr inbounds i8, ptr %54, i64 20
  %56 = load i32, ptr %55, align 4
  %57 = sext i32 %56 to i64
  %58 = icmp slt i64 %indvars.iv.next, %57
  br i1 %58, label %.lr.ph, label %.loopexit, !llvm.loop !10

.loopexit:                                        ; preds = %.lr.ph, %_ZN5Ipopt11DenseVector6ValuesEv.exit, %3
  ret void
}